target datalayout = "e-m:e-p270:32:32-p271:32:32-p272:64:64-i64:64-i128:128-f80:128-n8:16:32:64-S128"
target triple = "x86_64-pc-linux-gnu"

%class.ast = type { i32, i32, i32, i32 }
%"class.seq_util::rex" = type { ptr, ptr, i32, %class.vector.46, %class.ref_vector.47, %"struct.seq_util::rex::info", %"struct.seq_util::rex::info" }
%class.vector.46 = type { ptr }
%class.ref_vector.47 = type { %class.ref_vector_core.48 }
%class.ref_vector_core.48 = type { %class.ref_manager_wrapper.49, %class.ptr_vector.50 }
%class.ref_manager_wrapper.49 = type { ptr }
%class.ptr_vector.50 = type { %class.vector.51 }
%class.vector.51 = type { ptr }
%"struct.seq_util::rex::info" = type { i32, i8, i32, i32 }

; Function Attrs: mustprogress nounwind uwtable
define linkonce_odr hidden void @_ZN3ast7inc_refEv(ptr noundef nonnull align 4 dereferenceable(16) %0) #6 comdat align 2 {
  %2 = alloca ptr, align 8
  store ptr %0, ptr %2, align 8, !tbaa !50
  %3 = load ptr, ptr %2, align 8
  %4 = getelementptr inbounds nuw %class.ast, ptr %3, i32 0, i32 2
  %5 = load i32, ptr %4, align 4, !tbaa !307
  %6 = add i32 %5, 1
  store i32 %6, ptr %4, align 4, !tbaa !307
  ret void
}

; Function Attrs: mustprogress uwtable
define linkonce_odr hidden void @_ZN11ast_manager7inc_refEP3ast(ptr noundef nonnull align 8 dereferenceable(976) %0, ptr noundef %1) #4 comdat align 2 {
  %3 = alloca ptr, align 8
  %4 = alloca ptr, align 8
  store ptr %0, ptr %3, align 8, !tbaa !49
  store ptr %1, ptr %4, align 8, !tbaa !50
  %5 = load ptr, ptr %4, align 8, !tbaa !50
  %6 = icmp ne ptr %5, null
  br i1 %6, label %7, label %9

7:                                                ; preds = %2
  %8 = load ptr, ptr %4, align 8, !tbaa !50
  call void @_ZN3ast7inc_refEv(ptr noundef nonnull align 4 dereferenceable(16) %8)
  br label %9

9:                                                ; preds = %7, %2
  ret void
}

; Function Attrs: mustprogress uwtable
define linkonce_odr hidden void @_ZN19ref_manager_wrapperI4expr11ast_managerE7inc_refEPS0_(ptr noundef nonnull align 8 dereferenceable(8) %0, ptr noundef %1) #4 comdat align 2 {
  %3 = alloca ptr, align 8
  %4 = alloca ptr, align 8
  store ptr %0, ptr %3, align 8, !tbaa !428
  store ptr %1, ptr %4, align 8, !tbaa !229
  %5 = load ptr, ptr %3, align 8
  %6 = getelementptr inbounds nuw %class.ref_manager_wrapper.49, ptr %5, i32 0, i32 0
  %7 = load ptr, ptr %6, align 8, !tbaa !430
  %8 = load ptr, ptr %4, align 8, !tbaa !229
  call void @_ZN11ast_manager7inc_refEP3ast(ptr noundef nonnull align 8 dereferenceable(976) %7, ptr noundef %8)
  ret void
}

; Function Attrs: mustprogress nounwind uwtable
define linkonce_odr hidden noundef i32 @_ZNK6vectorIN8seq_util3rex4infoELb1EjE4sizeEv(ptr noundef nonnull align 8 dereferenceable(8) %0) #6 comdat align 2 {
  %2 = alloca i32, align 4
  %3 = alloca ptr, align 8
  store ptr %0, ptr %3, align 8, !tbaa !298
  %4 = load ptr, ptr %3, align 8
  %5 = getelementptr inbounds nuw %class.vector.46, ptr %4, i32 0, i32 0
  %6 = load ptr, ptr %5, align 8, !tbaa !300
  %7 = icmp eq ptr %6, null
  br i1 %7, label %8, label %9

8:                                                ; preds = %1
  store i32 0, ptr %2, align 4
  br label %14

9:                                                ; preds = %1
  %10 = getelementptr inbounds nuw %class.vector.46, ptr %4, i32 0, i32 0
  %11 = load ptr, ptr %10, align 8, !tbaa !300
  %12 = getelementptr inbounds i32, ptr %11, i64 -1
  %13 = load i32, ptr %12, align 4, !tbaa !55
  store i32 %13, ptr %2, align 4
  br label %14

14:                                               ; preds = %9, %8
  %15 = load i32, ptr %2, align 4
  ret i32 %15
}

; Function Attrs: mustprogress uwtable
define linkonce_odr hidden noundef nonnull align 8 dereferenceable(8) ptr @_ZN6vectorIP4exprLb0EjE9push_backERKS1_(ptr noundef nonnull align 8 dereferenceable(8) %0, ptr noundef nonnull align 8 dereferenceable(8) %1) #4 comdat align 2 {
  %3 = alloca ptr, align 8
  %4 = alloca ptr, align 8
  store ptr %0, ptr %3, align 8, !tbaa !256
  store ptr %1, ptr %4, align 8, !tbaa !228
  %5 = load ptr, ptr %3, align 8
  %6 = getelementptr inbounds nuw %class.vector.51, ptr %5, i32 0, i32 0
  %7 = load ptr, ptr %6, align 8, !tbaa !258
  %8 = icmp eq ptr %7, null
  br i1 %8, label %19, label %9

9:                                                ; preds = %2
  %10 = getelementptr inbounds nuw %class.vector.51, ptr %5, i32 0, i32 0
  %11 = load ptr, ptr %10, align 8, !tbaa !258
  %12 = getelementptr inbounds i32, ptr %11, i64 -1
  %13 = load i32, ptr %12, align 4, !tbaa !55
  %14 = getelementptr inbounds nuw %class.vector.51, ptr %5, i32 0, i32 0
  %15 = load ptr, ptr %14, align 8, !tbaa !258
  %16 = getelementptr inbounds i32, ptr %15, i64 -2
  %17 = load i32, ptr %16, align 4, !tbaa !55
  %18 = icmp eq i32 %13, %17
  br i1 %18, label %19, label %20

19:                                               ; preds = %9, %2
  call void @_ZN6vectorIP4exprLb0EjE13expand_vectorEv(ptr noundef nonnull align 8 dereferenceable(8) %5)
  br label %20

20:                                               ; preds = %19, %9
  %21 = getelementptr inbounds nuw %class.vector.51, ptr %5, i32 0, i32 0
  %22 = load ptr, ptr %21, align 8, !tbaa !258
  %23 = getelementptr inbounds nuw %class.vector.51, ptr %5, i32 0, i32 0
  %24 = load ptr, ptr %23, align 8, !tbaa !258
  %25 = getelementptr inbounds i32, ptr %24, i64 -1
  %26 = load i32, ptr %25, align 4, !tbaa !55
  %27 = zext i32 %26 to i64
  %28 = getelementptr inbounds nuw ptr, ptr %22, i64 %27
  %29 = load ptr, ptr %4, align 8, !tbaa !228
  %30 = load ptr, ptr %29, align 8, !tbaa !229
  store ptr %30, ptr %28, align 8, !tbaa !229
  %31 = getelementptr inbounds nuw %class.vector.51, ptr %5, i32 0, i32 0
  %32 = load ptr, ptr %31, align 8, !tbaa !258
  %33 = getelementptr inbounds i32, ptr %32, i64 -1
  %34 = load i32, ptr %33, align 4, !tbaa !55
  %35 = add i32 %34, 1
  store i32 %35, ptr %33, align 4, !tbaa !55
  ret ptr %5
}

; Function Attrs: mustprogress uwtable
define linkonce_odr hidden void @_ZN15ref_vector_coreI4expr19ref_manager_wrapperIS0_11ast_managerEE7inc_refEPS0_(ptr noundef nonnull align 8 dereferenceable(16) %0, ptr noundef %1) #4 comdat align 2 {
  %3 = alloca ptr, align 8
  %4 = alloca ptr, align 8
  store ptr %0, ptr %3, align 8, !tbaa !251
  store ptr %1, ptr %4, align 8, !tbaa !229
  %5 = load ptr, ptr %3, align 8
  %6 = load ptr, ptr %4, align 8, !tbaa !229
  call void @_ZN19ref_manager_wrapperI4expr11ast_managerE7inc_refEPS0_(ptr noundef nonnull align 8 dereferenceable(8) %5, ptr noundef %6)
  ret void
}

; Function Attrs: mustprogress nounwind uwtable
define linkonce_odr hidden noundef nonnull align 4 dereferenceable(16) ptr @_ZN6vectorIN8seq_util3rex4infoELb1EjEixEj(ptr noundef nonnull align 8 dereferenceable(8) %0, i32 noundef %1) #6 comdat align 2 {
  %3 = alloca ptr, align 8
  %4 = alloca i32, align 4
  store ptr %0, ptr %3, align 8, !tbaa !298
  store i32 %1, ptr %4, align 4, !tbaa !55
  %5 = load ptr, ptr %3, align 8
  %6 = getelementptr inbounds nuw %class.vector.46, ptr %5, i32 0, i32 0
  %7 = load ptr, ptr %6, align 8, !tbaa !300
  %8 = load i32, ptr %4, align 4, !tbaa !55
  %9 = zext i32 %8 to i64
  %10 = getelementptr inbounds nuw %"struct.seq_util::rex::info", ptr %7, i64 %9
  ret ptr %10
}

; Function Attrs: mustprogress nounwind uwtable
define linkonce_odr hidden noundef i32 @_ZNK3ast6get_idEv(ptr noundef nonnull align 4 dereferenceable(16) %0) #6 comdat align 2 {
  %2 = alloca ptr, align 8
  store ptr %0, ptr %2, align 8, !tbaa !50
  %3 = load ptr, ptr %2, align 8
  %4 = getelementptr inbounds nuw %class.ast, ptr %3, i32 0, i32 0
  %5 = load i32, ptr %4, align 4, !tbaa !297
  ret i32 %5
}

; Function Attrs: mustprogress uwtable
define hidden noundef zeroext i1 @_ZNK8seq_util3rex14has_valid_infoEP4expr(ptr noundef nonnull align 8 dereferenceable(80) %0, ptr noundef %1) #4 align 2 {
  %3 = alloca ptr, align 8
  %4 = alloca ptr, align 8
  store ptr %0, ptr %3, align 8, !tbaa !237
  store ptr %1, ptr %4, align 8, !tbaa !229
  %5 = load ptr, ptr %3, align 8
  %6 = load ptr, ptr %4, align 8, !tbaa !229
  %7 = call noundef i32 @_ZNK3ast6get_idEv(ptr noundef nonnull align 4 dereferenceable(16) %6)
  %8 = getelementptr inbounds nuw %"class.seq_util::rex", ptr %5, i32 0, i32 3
  %9 = call noundef i32 @_ZNK6vectorIN8seq_util3rex4infoELb1EjE4sizeEv(ptr noundef nonnull align 8 dereferenceable(8) %8)
  %10 = icmp ult i32 %7, %9
  br i1 %10, label %11, label %17

11:                                               ; preds = %2
  %12 = getelementptr inbounds nuw %"class.seq_util::rex", ptr %5, i32 0, i32 3
  %13 = load ptr, ptr %4, align 8, !tbaa !229
  %14 = call noundef i32 @_ZNK3ast6get_idEv(ptr noundef nonnull align 4 dereferenceable(16) %13)
  %15 = call noundef nonnull align 4 dereferenceable(16) ptr @_ZN6vectorIN8seq_util3rex4infoELb1EjEixEj(ptr noundef nonnull align 8 dereferenceable(8) %12, i32 noundef %14)
  %16 = call noundef zeroext i1 @_ZNK8seq_util3rex4info8is_validEv(ptr noundef nonnull align 4 dereferenceable(16) %15)
  br label %17

17:                                               ; preds = %11, %2
  %18 = phi i1 [ false, %2 ], [ %16, %11 ]
  ret i1 %18
}

; Function Attrs: mustprogress uwtable
define linkonce_odr hidden noundef nonnull align 8 dereferenceable(16) ptr @_ZN15ref_vector_coreI4expr19ref_manager_wrapperIS0_11ast_managerEE9push_backEPS0_(ptr noundef nonnull align 8 dereferenceable(16) %0, ptr noundef %1) #4 comdat align 2 {
  %3 = alloca ptr, align 8
  %4 = alloca ptr, align 8
  store ptr %0, ptr %3, align 8, !tbaa !251
  store ptr %1, ptr %4, align 8, !tbaa !229
  %5 = load ptr, ptr %3, align 8
  %6 = load ptr, ptr %4, align 8, !tbaa !229
  call void @_ZN15ref_vector_coreI4expr19ref_manager_wrapperIS0_11ast_managerEE7inc_refEPS0_(ptr noundef nonnull align 8 dereferenceable(16) %5, ptr noundef %6)
  %7 = getelementptr inbounds nuw %class.ref_vector_core.48, ptr %5, i32 0, i32 1
  %8 = call noundef nonnull align 8 dereferenceable(8) ptr @_ZN6vectorIP4exprLb0EjE9push_backERKS1_(ptr noundef nonnull align 8 dereferenceable(8) %7, ptr noundef nonnull align 8 dereferenceable(8) %4)
  ret ptr %5
}

; Function Attrs: mustprogress nounwind uwtable
define linkonce_odr hidden noundef zeroext i1 @_ZNK8seq_util3rex4info8is_validEv(ptr noundef nonnull align 4 dereferenceable(16) %0) #6 comdat align 2 {
  %2 = alloca ptr, align 8
  store ptr %0, ptr %2, align 8, !tbaa !301
  %3 = load ptr, ptr %2, align 8
  %4 = getelementptr inbounds nuw %"struct.seq_util::rex::info", ptr %3, i32 0, i32 0
  %5 = load i32, ptr %4, align 4, !tbaa !302
  %6 = icmp ne i32 %5, 0
  ret i1 %6
}

; Function Attrs: mustprogress uwtable
define hidden { i64, i64 } @_ZNK8seq_util3rex15get_cached_infoEP4expr(ptr noundef nonnull align 8 dereferenceable(80) %0, ptr noundef %1) #4 align 2 {
  %3 = alloca %"struct.seq_util::rex::info", align 4
  %4 = alloca ptr, align 8
  %5 = alloca ptr, align 8
  store ptr %0, ptr %4, align 8, !tbaa !237
  store ptr %1, ptr %5, align 8, !tbaa !229
  %6 = load ptr, ptr %4, align 8
  %7 = load ptr, ptr %5, align 8, !tbaa !229
  %8 = call noundef zeroext i1 @_ZNK8seq_util3rex14has_valid_infoEP4expr(ptr noundef nonnull align 8 dereferenceable(80) %6, ptr noundef %7)
  br i1 %8, label %9, label %14

9:                                                ; preds = %2
  %10 = getelementptr inbounds nuw %"class.seq_util::rex", ptr %6, i32 0, i32 3
  %11 = load ptr, ptr %5, align 8, !tbaa !229
  %12 = call noundef i32 @_ZNK3ast6get_idEv(ptr noundef nonnull align 4 dereferenceable(16) %11)
  %13 = call noundef nonnull align 4 dereferenceable(16) ptr @_ZN6vectorIN8seq_util3rex4infoELb1EjEixEj(ptr noundef nonnull align 8 dereferenceable(8) %10, i32 noundef %12)
  call void @llvm.memcpy.p0.p0.i64(ptr align 4 %3, ptr align 4 %13, i64 16, i1 false), !tbaa.struct !284
  br label %16

14:                                               ; preds = %2
  %15 = getelementptr inbounds nuw %"class.seq_util::rex", ptr %6, i32 0, i32 5
  call void @llvm.memcpy.p0.p0.i64(ptr align 4 %3, ptr align 8 %15, i64 16, i1 false), !tbaa.struct !284
  br label %16

16:                                               ; preds = %14, %9
  %17 = load { i64, i64 }, ptr %3, align 4
  ret { i64, i64 } %17
}

; Function Attrs: mustprogress uwtable
define hidden { i64, i64 } @_ZNK8seq_util3rex8get_infoEP4expr(ptr noundef nonnull align 8 dereferenceable(80) %0, ptr noundef %1) #4 align 2 {
  %3 = alloca %"struct.seq_util::rex::info", align 4
  %4 = alloca ptr, align 8
  %5 = alloca ptr, align 8
  %6 = alloca %"struct.seq_util::rex::info", align 4
  %7 = alloca i32, align 4
  store ptr %0, ptr %4, align 8, !tbaa !237
  store ptr %1, ptr %5, align 8, !tbaa !229
  %8 = load ptr, ptr %4, align 8
  call void @llvm.lifetime.start.p0(i64 16, ptr %6) #3
  %9 = load ptr, ptr %5, align 8, !tbaa !229
  %10 = call { i64, i64 } @_ZNK8seq_util3rex15get_cached_infoEP4expr(ptr noundef nonnull align 8 dereferenceable(80) %8, ptr noundef %9)
  %11 = getelementptr inbounds nuw { i64, i64 }, ptr %6, i32 0, i32 0
  %12 = extractvalue { i64, i64 } %10, 0
  store i64 %12, ptr %11, align 4
  %13 = getelementptr inbounds nuw { i64, i64 }, ptr %6, i32 0, i32 1
  %14 = extractvalue { i64, i64 } %10, 1
  store i64 %14, ptr %13, align 4
  %15 = call noundef zeroext i1 @_ZNK8seq_util3rex4info8is_validEv(ptr noundef nonnull align 4 dereferenceable(16) %6)
  br i1 %15, label %16, label %17

16:                                               ; preds = %2
  call void @llvm.memcpy.p0.p0.i64(ptr align 4 %3, ptr align 4 %6, i64 16, i1 false), !tbaa.struct !284
  store i32 1, ptr %7, align 4
  br label %27

17:                                               ; preds = %2
  %18 = getelementptr inbounds nuw %"class.seq_util::rex", ptr %8, i32 0, i32 4
  %19 = load ptr, ptr %5, align 8, !tbaa !229
  %20 = call noundef nonnull align 8 dereferenceable(16) ptr @_ZN15ref_vector_coreI4expr19ref_manager_wrapperIS0_11ast_managerEE9push_backEPS0_(ptr noundef nonnull align 8 dereferenceable(16) %18, ptr noundef %19)
  %21 = load ptr, ptr %5, align 8, !tbaa !229
  %22 = call { i64, i64 } @_ZNK8seq_util3rex12get_info_recEP4expr(ptr noundef nonnull align 8 dereferenceable(80) %8, ptr noundef %21)
  %23 = getelementptr inbounds nuw { i64, i64 }, ptr %3, i32 0, i32 0
  %24 = extractvalue { i64, i64 } %22, 0
  store i64 %24, ptr %23, align 4
  %25 = getelementptr inbounds nuw { i64, i64 }, ptr %3, i32 0, i32 1
  %26 = extractvalue { i64, i64 } %22, 1
  store i64 %26, ptr %25, align 4
  store i32 1, ptr %7, align 4
  br label %27

27:                                               ; preds = %17, %16
  call void @llvm.lifetime.end.p0(i64 16, ptr %6) #3
  %28 = load { i64, i64 }, ptr %3, align 4
  ret { i64, i64 } %28
}

; Function Attrs: mustprogress uwtable
define hidden noundef i32 @_ZNK8seq_util3rex10min_lengthEP4expr(ptr noundef nonnull align 8 dereferenceable(80) %0, ptr noundef %1) #4 align 2 {
  %3 = alloca ptr, align 8
  %4 = alloca ptr, align 8
  %5 = alloca %"struct.seq_util::rex::info", align 4
  store ptr %0, ptr %3, align 8, !tbaa !237
  store ptr %1, ptr %4, align 8, !tbaa !229
  %6 = load ptr, ptr %3, align 8
  call void @llvm.lifetime.start.p0(i64 16, ptr %5) #3
  %7 = load ptr, ptr %4, align 8, !tbaa !229
  %8 = call { i64, i64 } @_ZNK8seq_util3rex8get_infoEP4expr(ptr noundef nonnull align 8 dereferenceable(80) %6, ptr noundef %7)
  %9 = getelementptr inbounds nuw { i64, i64 }, ptr %5, i32 0, i32 0
  %10 = extractvalue { i64, i64 } %8, 0
  store i64 %10, ptr %9, align 4
  %11 = getelementptr inbounds nuw { i64, i64 }, ptr %5, i32 0, i32 1
  %12 = extractvalue { i64, i64 } %8, 1
  store i64 %12, ptr %11, align 4
  %13 = getelementptr inbounds nuw %"struct.seq_util::rex::info", ptr %5, i32 0, i32 3
  %14 = load i32, ptr %13, align 4, !tbaa !283
  call void @llvm.lifetime.end.p0(i64 16, ptr %5) #3
  ret i32 %14
}