; Function Attrs: mustprogress uwtable
define hidden noundef i32 @_ZNK8seq_util3rex10min_lengthEP4expr(ptr noundef nonnull align 8 dereferenceable(80) %0, ptr noundef %1) local_unnamed_addr #3 align 2 {
  %3 = load i32, ptr %1, align 4, !tbaa !257
  %4 = getelementptr inbounds nuw i8, ptr %0, i64 24
  %5 = load ptr, ptr %4, align 8, !tbaa !183
  %6 = icmp eq ptr %5, null
  br i1 %6, label %_ZNK8seq_util3rex14has_valid_infoEP4expr.exit.thread.i.i, label %_ZNK6vectorIN8seq_util3rex4infoELb1EjE4sizeEv.exit.i.i.i

_ZNK6vectorIN8seq_util3rex4infoELb1EjE4sizeEv.exit.i.i.i: ; preds = %2
  %7 = getelementptr inbounds i8, ptr %5, i64 -4
  %8 = load i32, ptr %7, align 4, !tbaa !29
  %9 = icmp ult i32 %3, %8
  br i1 %9, label %_ZNK8seq_util3rex14has_valid_infoEP4expr.exit.i.i, label %_ZNK8seq_util3rex14has_valid_infoEP4expr.exit.thread.i.i

_ZNK8seq_util3rex14has_valid_infoEP4expr.exit.i.i: ; preds = %_ZNK6vectorIN8seq_util3rex4infoELb1EjE4sizeEv.exit.i.i.i
  %10 = zext i32 %3 to i64
  %11 = getelementptr inbounds nuw %"struct.seq_util::rex::info", ptr %5, i64 %10
  %12 = load i32, ptr %11, align 4, !tbaa !208
  %.not.i.i = icmp eq i32 %12, 0
  br i1 %.not.i.i, label %_ZNK8seq_util3rex14has_valid_infoEP4expr.exit.thread.i.i, label %13

13:                                               ; preds = %_ZNK8seq_util3rex14has_valid_infoEP4expr.exit.i.i
  %.sroa.3.0..sroa_idx.i.i = getelementptr inbounds nuw i8, ptr %11, i64 8
  br label %_ZNK8seq_util3rex15get_cached_infoEP4expr.exit.i

_ZNK8seq_util3rex14has_valid_infoEP4expr.exit.thread.i.i: ; preds = %_ZNK8seq_util3rex14has_valid_infoEP4expr.exit.i.i, %_ZNK6vectorIN8seq_util3rex4infoELb1EjE4sizeEv.exit.i.i.i, %2
  %14 = getelementptr inbounds nuw i8, ptr %0, i64 48
  %.sroa.3.0..sroa_idx4.i.i = getelementptr inbounds nuw i8, ptr %0, i64 56
  br label %_ZNK8seq_util3rex15get_cached_infoEP4expr.exit.i

_ZNK8seq_util3rex15get_cached_infoEP4expr.exit.i: ; preds = %_ZNK8seq_util3rex14has_valid_infoEP4expr.exit.thread.i.i, %13
  %.sroa.0.0.in.i.i = phi ptr [ %11, %13 ], [ %14, %_ZNK8seq_util3rex14has_valid_infoEP4expr.exit.thread.i.i ]
  %.sroa.3.0.in.i.i = phi ptr [ %.sroa.3.0..sroa_idx.i.i, %13 ], [ %.sroa.3.0..sroa_idx4.i.i, %_ZNK8seq_util3rex14has_valid_infoEP4expr.exit.thread.i.i ]
  %.sroa.3.0.i.i = load i64, ptr %.sroa.3.0.in.i.i, align 4
  %.sroa.0.0.i.i = load i64, ptr %.sroa.0.0.in.i.i, align 4
  %15 = and i64 %.sroa.0.0.i.i, 4294967295
  %.not.i = icmp eq i64 %15, 0
  br i1 %.not.i, label %_ZN15ref_vector_coreI4expr19ref_manager_wrapperIS0_11ast_managerEE7inc_refEPS0_.exit.i.i, label %_ZNK8seq_util3rex8get_infoEP4expr.exit

_ZN15ref_vector_coreI4expr19ref_manager_wrapperIS0_11ast_managerEE7inc_refEPS0_.exit.i.i: ; preds = %_ZNK8seq_util3rex15get_cached_infoEP4expr.exit.i
  %16 = getelementptr inbounds nuw i8, ptr %1, i64 8
  %17 = load i32, ptr %16, align 4, !tbaa !31
  %18 = add i32 %17, 1
  store i32 %18, ptr %16, align 4, !tbaa !31
  %19 = getelementptr inbounds nuw i8, ptr %0, i64 40
  %20 = load ptr, ptr %19, align 8, !tbaa !175
  %21 = icmp eq ptr %20, null
  br i1 %21, label %28, label %22

22:                                               ; preds = %_ZN15ref_vector_coreI4expr19ref_manager_wrapperIS0_11ast_managerEE7inc_refEPS0_.exit.i.i
  %23 = getelementptr inbounds i8, ptr %20, i64 -4
  %24 = load i32, ptr %23, align 4, !tbaa !29
  %25 = getelementptr inbounds i8, ptr %20, i64 -8
  %26 = load i32, ptr %25, align 4, !tbaa !29
  %27 = icmp eq i32 %24, %26
  br i1 %27, label %28, label %_ZN15ref_vector_coreI4expr19ref_manager_wrapperIS0_11ast_managerEE9push_backEPS0_.exit.i

28:                                               ; preds = %22, %_ZN15ref_vector_coreI4expr19ref_manager_wrapperIS0_11ast_managerEE7inc_refEPS0_.exit.i.i
  tail call void @_ZN6vectorIP4exprLb0EjE13expand_vectorEv(ptr noundef nonnull align 8 dereferenceable(8) %19)
  %.pre.i.i.i = load ptr, ptr %19, align 8, !tbaa !175
  %.phi.trans.insert.i.i.i = getelementptr inbounds i8, ptr %.pre.i.i.i, i64 -4
  %.pre2.i.i.i = load i32, ptr %.phi.trans.insert.i.i.i, align 4, !tbaa !29
  br label %_ZN15ref_vector_coreI4expr19ref_manager_wrapperIS0_11ast_managerEE9push_backEPS0_.exit.i

_ZN15ref_vector_coreI4expr19ref_manager_wrapperIS0_11ast_managerEE9push_backEPS0_.exit.i: ; preds = %28, %22
  %29 = phi i32 [ %.pre2.i.i.i, %28 ], [ %24, %22 ]
  %30 = phi ptr [ %.pre.i.i.i, %28 ], [ %20, %22 ]
  %31 = getelementptr inbounds i8, ptr %30, i64 -4
  %32 = zext i32 %29 to i64
  %33 = getelementptr inbounds nuw ptr, ptr %30, i64 %32
  store ptr %1, ptr %33, align 8, !tbaa !178
  %34 = add i32 %29, 1
  store i32 %34, ptr %31, align 4, !tbaa !29
  %35 = tail call { i64, i64 } @_ZNK8seq_util3rex12get_info_recEP4expr(ptr noundef nonnull align 8 dereferenceable(80) %0, ptr noundef nonnull %1)
  %36 = extractvalue { i64, i64 } %35, 1
  br label %_ZNK8seq_util3rex8get_infoEP4expr.exit

_ZNK8seq_util3rex8get_infoEP4expr.exit:           ; preds = %_ZNK8seq_util3rex15get_cached_infoEP4expr.exit.i, %_ZN15ref_vector_coreI4expr19ref_manager_wrapperIS0_11ast_managerEE9push_backEPS0_.exit.i
  %.fca.1.insert.merged.i = phi i64 [ %36, %_ZN15ref_vector_coreI4expr19ref_manager_wrapperIS0_11ast_managerEE9push_backEPS0_.exit.i ], [ %.sroa.3.0.i.i, %_ZNK8seq_util3rex15get_cached_infoEP4expr.exit.i ]
  %.sroa.3.12.extract.shift = lshr i64 %.fca.1.insert.merged.i, 32
  %.sroa.3.12.extract.trunc = trunc nuw i64 %.sroa.3.12.extract.shift to i32
  ret i32 %.sroa.3.12.extract.trunc
}